target datalayout = "e-m:e-p270:32:32-p271:32:32-p272:64:64-i64:64-i128:128-f80:128-n8:16:32:64-S128"
target triple = "x86_64-pc-linux-gnu"

@ett_aim_ssi = internal global i32 0, align 4
@.str.938 = private unnamed_addr constant [10 x i8] c"SSI Entry\00", align 1

; Function Attrs: null_pointer_is_valid sspstrong uwtable
define internal i32 @calc_ssi_entry_size(ptr noundef %0, i32 noundef %1) #0 {
  %3 = alloca ptr, align 8
  %4 = alloca i32, align 4
  %5 = alloca i32, align 4
  store ptr %0, ptr %3, align 8
  store i32 %1, ptr %4, align 4
  call void @llvm.lifetime.start.p0(i64 4, ptr %5) #13
  %6 = load ptr, ptr %3, align 8
  %7 = load i32, ptr %4, align 4
  %8 = call zeroext i16 @tvb_get_ntohs(ptr noundef %6, i32 noundef %7)
  %9 = zext i16 %8 to i32
  %10 = add i32 2, %9
  %11 = add i32 %10, 6
  store i32 %11, ptr %5, align 4
  %12 = load ptr, ptr %3, align 8
  %13 = load i32, ptr %4, align 4
  %14 = load i32, ptr %5, align 4
  %15 = add i32 %13, %14
  %16 = call zeroext i16 @tvb_get_ntohs(ptr noundef %12, i32 noundef %15)
  %17 = zext i16 %16 to i32
  %18 = add i32 %17, 2
  %19 = load i32, ptr %5, align 4
  %20 = add i32 %19, %18
  store i32 %20, ptr %5, align 4
  %21 = load i32, ptr %5, align 4
  call void @llvm.lifetime.end.p0(i64 4, ptr %5) #13
  ret i32 %21
}

; Function Attrs: null_pointer_is_valid sspstrong uwtable
define internal i32 @dissect_ssi_ssi_items(ptr noundef %0, ptr noundef %1, ptr noundef %2) #0 {
  %4 = alloca ptr, align 8
  %5 = alloca ptr, align 8
  %6 = alloca ptr, align 8
  %7 = alloca i32, align 4
  %8 = alloca i32, align 4
  %9 = alloca ptr, align 8
  %10 = alloca i32, align 4
  store ptr %0, ptr %4, align 8
  store ptr %1, ptr %5, align 8
  store ptr %2, ptr %6, align 8
  call void @llvm.lifetime.start.p0(i64 4, ptr %7) #13
  store i32 0, ptr %7, align 4
  call void @llvm.lifetime.start.p0(i64 4, ptr %8) #13
  call void @llvm.lifetime.start.p0(i64 8, ptr %9) #13
  store ptr null, ptr %9, align 8
  call void @llvm.lifetime.start.p0(i64 4, ptr %10) #13
  %11 = load ptr, ptr %4, align 8
  %12 = call i32 @tvb_reported_length(ptr noundef %11)
  store i32 %12, ptr %10, align 4
  br label %13

13:                                               ; preds = %17, %3
  %14 = load i32, ptr %10, align 4
  %15 = load i32, ptr %7, align 4
  %16 = icmp sgt i32 %14, %15
  br i1 %16, label %17, label %32

17:                                               ; preds = %13
  %18 = load ptr, ptr %4, align 8
  %19 = load i32, ptr %7, align 4
  %20 = call i32 @calc_ssi_entry_size(ptr noundef %18, i32 noundef %19)
  store i32 %20, ptr %8, align 4
  %21 = load ptr, ptr %6, align 8
  %22 = load ptr, ptr %4, align 8
  %23 = load i32, ptr %7, align 4
  %24 = load i32, ptr %8, align 4
  %25 = load i32, ptr @ett_aim_ssi, align 4
  %26 = call ptr @proto_tree_add_subtree(ptr noundef %21, ptr noundef %22, i32 noundef %23, i32 noundef %24, i32 noundef %25, ptr noundef null, ptr noundef @.str.938)
  store ptr %26, ptr %9, align 8
  %27 = load ptr, ptr %4, align 8
  %28 = load ptr, ptr %5, align 8
  %29 = load i32, ptr %7, align 4
  %30 = load ptr, ptr %9, align 8
  %31 = call i32 @dissect_ssi_item(ptr noundef %27, ptr noundef %28, i32 noundef %29, ptr noundef %30)
  store i32 %31, ptr %7, align 4
  br label %13, !llvm.loop !44

32:                                               ; preds = %13
  %33 = load i32, ptr %7, align 4
  call void @llvm.lifetime.end.p0(i64 4, ptr %10) #13
  call void @llvm.lifetime.end.p0(i64 8, ptr %9) #13
  call void @llvm.lifetime.end.p0(i64 4, ptr %8) #13
  call void @llvm.lifetime.end.p0(i64 4, ptr %7) #13
  ret i32 %33
}