; Function Attrs: null_pointer_is_valid sspstrong uwtable
define internal range(i32 -2147483647, -2147483648) i32 @dissect_ssi_ssi_items(ptr noundef %0, ptr noundef %1, ptr noundef %2) #0 {
  %4 = tail call i32 @tvb_reported_length(ptr noundef %0)
  %5 = icmp sgt i32 %4, 0
  br i1 %5, label %.lr.ph, label %._crit_edge

.lr.ph:                                           ; preds = %3, %.lr.ph
  %.013 = phi i32 [ %16, %.lr.ph ], [ 0, %3 ]
  %6 = tail call zeroext i16 @tvb_get_ntohs(ptr noundef %0, i32 noundef %.013)
  %7 = zext i16 %6 to i32
  %8 = add nuw nsw i32 %7, 8
  %9 = add i32 %8, %.013
  %10 = tail call zeroext i16 @tvb_get_ntohs(ptr noundef %0, i32 noundef %9)
  %11 = zext i16 %10 to i32
  %12 = add nuw nsw i32 %11, 2
  %13 = add nuw nsw i32 %12, %8
  %14 = load i32, ptr @ett_aim_ssi, align 4
  %15 = tail call ptr @proto_tree_add_subtree(ptr noundef %2, ptr noundef %0, i32 noundef %.013, i32 noundef %13, i32 noundef %14, ptr noundef null, ptr noundef nonnull @.str.938)
  %16 = tail call fastcc i32 @dissect_ssi_item(ptr noundef %0, ptr noundef %1, i32 noundef %.013, ptr noundef %15)
  %17 = icmp sgt i32 %4, %16
  br i1 %17, label %.lr.ph, label %._crit_edge, !llvm.loop !43

._crit_edge:                                      ; preds = %.lr.ph, %3
  %.0.lcssa = phi i32 [ 0, %3 ], [ %16, %.lr.ph ]
  ret i32 %.0.lcssa
}